; Function Attrs: mustprogress nofree norecurse nosync nounwind willreturn memory(argmem: read) uwtable
define noundef i64 @_ZN5folly8external8farmhash15Hash64WithSeedsEPKcmmm(ptr noundef captures(address) %0, i64 noundef %1, i64 noundef %2, i64 noundef %3) local_unnamed_addr #0 {
  %5 = tail call noundef i64 @_ZN5folly8external8farmhash10farmhashna6Hash64EPKcm(ptr noundef %0, i64 noundef %1)
  %6 = sub i64 %5, %2
  %7 = xor i64 %6, %3
  %8 = mul i64 %7, -7070675565921424023
  %9 = lshr i64 %8, 47
  %10 = xor i64 %3, %9
  %11 = xor i64 %10, %8
  %12 = mul i64 %11, -7070675565921424023
  %13 = lshr i64 %12, 47
  %14 = xor i64 %13, %12
  %15 = mul i64 %14, -7070675565921424023
  ret i64 %15
}